target datalayout = "e-m:e-p270:32:32-p271:32:32-p272:64:64-i64:64-i128:128-f80:128-n8:16:32:64-S128"
target triple = "x86_64-pc-linux-gnu"

; Function Attrs: inlinehint mustprogress nounwind uwtable
define linkonce_odr noundef i32 @_ZN6icu_7717uprv_upperOrdinalEi(i32 noundef %0) #2 comdat {
  %2 = alloca i32, align 4
  store i32 %0, ptr %2, align 4, !tbaa !14
  %3 = load i32, ptr %2, align 4, !tbaa !14
  %4 = sub nsw i32 %3, 65
  ret i32 %4
}

; Function Attrs: mustprogress uwtable
define noundef i32 @_ZN6icu_773LSR14indexForRegionEPKc(ptr noundef %0) #1 align 2 {
  %2 = alloca i32, align 4
  %3 = alloca ptr, align 8
  %4 = alloca i32, align 4
  %5 = alloca i32, align 4
  %6 = alloca i32, align 4
  %7 = alloca i32, align 4
  %8 = alloca i32, align 4
  store ptr %0, ptr %3, align 8, !tbaa !17
  call void @llvm.lifetime.start.p0(i64 4, ptr %4) #10
  %9 = load ptr, ptr %3, align 8, !tbaa !17
  %10 = getelementptr inbounds i8, ptr %9, i64 0
  %11 = load i8, ptr %10, align 1, !tbaa !25
  %12 = sext i8 %11 to i32
  store i32 %12, ptr %4, align 4, !tbaa !14
  call void @llvm.lifetime.start.p0(i64 4, ptr %5) #10
  %13 = load i32, ptr %4, align 4, !tbaa !14
  %14 = sub nsw i32 %13, 48
  store i32 %14, ptr %5, align 4, !tbaa !14
  %15 = load i32, ptr %5, align 4, !tbaa !14
  %16 = icmp sle i32 0, %15
  br i1 %16, label %17, label %60

17:                                               ; preds = %1
  %18 = load i32, ptr %5, align 4, !tbaa !14
  %19 = icmp sle i32 %18, 9
  br i1 %19, label %20, label %60

20:                                               ; preds = %17
  call void @llvm.lifetime.start.p0(i64 4, ptr %6) #10
  %21 = load ptr, ptr %3, align 8, !tbaa !17
  %22 = getelementptr inbounds i8, ptr %21, i64 1
  %23 = load i8, ptr %22, align 1, !tbaa !25
  %24 = sext i8 %23 to i32
  %25 = sub nsw i32 %24, 48
  store i32 %25, ptr %6, align 4, !tbaa !14
  %26 = load i32, ptr %6, align 4, !tbaa !14
  %27 = icmp slt i32 %26, 0
  br i1 %27, label %31, label %28

28:                                               ; preds = %20
  %29 = load i32, ptr %6, align 4, !tbaa !14
  %30 = icmp slt i32 9, %29
  br i1 %30, label %31, label %32

31:                                               ; preds = %28, %20
  store i32 0, ptr %2, align 4
  store i32 1, ptr %7, align 4
  br label %59

32:                                               ; preds = %28
  %33 = load ptr, ptr %3, align 8, !tbaa !17
  %34 = getelementptr inbounds i8, ptr %33, i64 2
  %35 = load i8, ptr %34, align 1, !tbaa !25
  %36 = sext i8 %35 to i32
  %37 = sub nsw i32 %36, 48
  store i32 %37, ptr %4, align 4, !tbaa !14
  %38 = load i32, ptr %4, align 4, !tbaa !14
  %39 = icmp slt i32 %38, 0
  br i1 %39, label %49, label %40

40:                                               ; preds = %32
  %41 = load i32, ptr %4, align 4, !tbaa !14
  %42 = icmp slt i32 9, %41
  br i1 %42, label %49, label %43

43:                                               ; preds = %40
  %44 = load ptr, ptr %3, align 8, !tbaa !17
  %45 = getelementptr inbounds i8, ptr %44, i64 3
  %46 = load i8, ptr %45, align 1, !tbaa !25
  %47 = sext i8 %46 to i32
  %48 = icmp ne i32 %47, 0
  br i1 %48, label %49, label %50

49:                                               ; preds = %43, %40, %32
  store i32 0, ptr %2, align 4
  store i32 1, ptr %7, align 4
  br label %59

50:                                               ; preds = %43
  %51 = load i32, ptr %5, align 4, !tbaa !14
  %52 = mul nsw i32 10, %51
  %53 = load i32, ptr %6, align 4, !tbaa !14
  %54 = add nsw i32 %52, %53
  %55 = mul nsw i32 %54, 10
  %56 = load i32, ptr %4, align 4, !tbaa !14
  %57 = add nsw i32 %55, %56
  %58 = add nsw i32 %57, 1
  store i32 %58, ptr %2, align 4
  store i32 1, ptr %7, align 4
  br label %59

59:                                               ; preds = %50, %49, %31
  call void @llvm.lifetime.end.p0(i64 4, ptr %6) #10
  br label %94

60:                                               ; preds = %17, %1
  %61 = load i32, ptr %4, align 4, !tbaa !14
  %62 = call noundef i32 @_ZN6icu_7717uprv_upperOrdinalEi(i32 noundef %61)
  store i32 %62, ptr %5, align 4, !tbaa !14
  %63 = load i32, ptr %5, align 4, !tbaa !14
  %64 = icmp slt i32 %63, 0
  br i1 %64, label %68, label %65

65:                                               ; preds = %60
  %66 = load i32, ptr %5, align 4, !tbaa !14
  %67 = icmp slt i32 25, %66
  br i1 %67, label %68, label %69

68:                                               ; preds = %65, %60
  store i32 0, ptr %2, align 4
  store i32 1, ptr %7, align 4
  br label %94

69:                                               ; preds = %65
  call void @llvm.lifetime.start.p0(i64 4, ptr %8) #10
  %70 = load ptr, ptr %3, align 8, !tbaa !17
  %71 = getelementptr inbounds i8, ptr %70, i64 1
  %72 = load i8, ptr %71, align 1, !tbaa !25
  %73 = sext i8 %72 to i32
  %74 = call noundef i32 @_ZN6icu_7717uprv_upperOrdinalEi(i32 noundef %73)
  store i32 %74, ptr %8, align 4, !tbaa !14
  %75 = load i32, ptr %8, align 4, !tbaa !14
  %76 = icmp slt i32 %75, 0
  br i1 %76, label %86, label %77

77:                                               ; preds = %69
  %78 = load i32, ptr %8, align 4, !tbaa !14
  %79 = icmp slt i32 25, %78
  br i1 %79, label %86, label %80

80:                                               ; preds = %77
  %81 = load ptr, ptr %3, align 8, !tbaa !17
  %82 = getelementptr inbounds i8, ptr %81, i64 2
  %83 = load i8, ptr %82, align 1, !tbaa !25
  %84 = sext i8 %83 to i32
  %85 = icmp ne i32 %84, 0
  br i1 %85, label %86, label %87

86:                                               ; preds = %80, %77, %69
  store i32 0, ptr %2, align 4
  store i32 1, ptr %7, align 4
  br label %93

87:                                               ; preds = %80
  %88 = load i32, ptr %5, align 4, !tbaa !14
  %89 = mul nsw i32 26, %88
  %90 = load i32, ptr %8, align 4, !tbaa !14
  %91 = add nsw i32 %89, %90
  %92 = add nsw i32 %91, 1001
  store i32 %92, ptr %2, align 4
  store i32 1, ptr %7, align 4
  br label %93

93:                                               ; preds = %87, %86
  call void @llvm.lifetime.end.p0(i64 4, ptr %8) #10
  br label %94

94:                                               ; preds = %93, %68, %59
  call void @llvm.lifetime.end.p0(i64 4, ptr %5) #10
  call void @llvm.lifetime.end.p0(i64 4, ptr %4) #10
  %95 = load i32, ptr %2, align 4
  ret i32 %95
}