; Function Attrs: mustprogress nofree norecurse nosync nounwind willreturn memory(argmem: read) uwtable
define noundef range(i32 0, 1677) i32 @_ZN6icu_773LSR14indexForRegionEPKc(ptr noundef readonly captures(none) %0) local_unnamed_addr #10 align 2 {
  %2 = load i8, ptr %0, align 1, !tbaa !18
  %3 = sext i8 %2 to i32
  %4 = add i8 %2, -48
  %or.cond = icmp ult i8 %4, 10
  br i1 %or.cond, label %5, label %24

5:                                                ; preds = %1
  %6 = getelementptr inbounds nuw i8, ptr %0, i64 1
  %7 = load i8, ptr %6, align 1, !tbaa !18
  %8 = sext i8 %7 to i32
  %9 = add i8 %7, -58
  %or.cond3 = icmp ult i8 %9, -10
  br i1 %or.cond3, label %38, label %10

10:                                               ; preds = %5
  %11 = getelementptr inbounds nuw i8, ptr %0, i64 2
  %12 = load i8, ptr %11, align 1, !tbaa !18
  %13 = sext i8 %12 to i32
  %14 = add i8 %12, -58
  %or.cond5 = icmp ult i8 %14, -10
  br i1 %or.cond5, label %38, label %15

15:                                               ; preds = %10
  %16 = getelementptr inbounds nuw i8, ptr %0, i64 3
  %17 = load i8, ptr %16, align 1, !tbaa !18
  %.not37 = icmp eq i8 %17, 0
  br i1 %.not37, label %18, label %38

18:                                               ; preds = %15
  %19 = mul nuw nsw i32 %3, 10
  %20 = add nuw nsw i32 %19, %8
  %21 = mul nuw nsw i32 %20, 10
  %22 = add nsw i32 %21, -5327
  %23 = add nsw i32 %22, %13
  br label %38

24:                                               ; preds = %1
  %25 = add nsw i32 %3, -65
  %or.cond7 = icmp ugt i32 %25, 25
  br i1 %or.cond7, label %38, label %26

26:                                               ; preds = %24
  %27 = getelementptr inbounds nuw i8, ptr %0, i64 1
  %28 = load i8, ptr %27, align 1, !tbaa !18
  %29 = sext i8 %28 to i32
  %30 = add nsw i32 %29, -65
  %or.cond9 = icmp ugt i32 %30, 25
  br i1 %or.cond9, label %38, label %31

31:                                               ; preds = %26
  %32 = getelementptr inbounds nuw i8, ptr %0, i64 2
  %33 = load i8, ptr %32, align 1, !tbaa !18
  %.not = icmp eq i8 %33, 0
  br i1 %.not, label %34, label %38

34:                                               ; preds = %31
  %35 = mul nuw nsw i32 %25, 26
  %36 = add nuw nsw i32 %35, 1001
  %37 = add nuw nsw i32 %36, %30
  br label %38

38:                                               ; preds = %34, %31, %26, %24, %18, %5, %15, %10
  %.1 = phi i32 [ %23, %18 ], [ 0, %5 ], [ 0, %15 ], [ 0, %10 ], [ 0, %24 ], [ %37, %34 ], [ 0, %31 ], [ 0, %26 ]
  ret i32 %.1
}